; Function Attrs: mustprogress nounwind uwtable
define hidden void @_ZN7Compile15log_late_inlineEP13CallGenerator(ptr nocapture noundef nonnull readonly align 8 dereferenceable(2316) %0, ptr noundef %1) local_unnamed_addr #0 align 2 {
  %3 = getelementptr inbounds i8, ptr %0, i64 368
  %4 = load ptr, ptr %3, align 8
  %.not = icmp eq ptr %4, null
  br i1 %.not, label %29, label %5

5:                                                ; preds = %2
  %6 = getelementptr inbounds i8, ptr %1, i64 8
  %7 = load ptr, ptr %6, align 8
  %8 = tail call noundef i32 @_ZN10CompileLog8identifyEP12ciBaseObject(ptr noundef nonnull align 8 dereferenceable(440) %4, ptr noundef %7) #17
  %9 = load ptr, ptr %1, align 8
  %10 = getelementptr inbounds i8, ptr %9, i64 160
  %11 = load ptr, ptr %10, align 8
  %12 = tail call noundef i64 %11(ptr noundef nonnull align 8 dereferenceable(16) %1) #17
  tail call void (ptr, ptr, ...) @_ZN9xmlStream4headEPKcz(ptr noundef nonnull align 8 dereferenceable(152) %4, ptr noundef nonnull @.str.44, i32 noundef %8, i64 noundef %12) #17
  %13 = load ptr, ptr %1, align 8
  %14 = getelementptr inbounds i8, ptr %13, i64 136
  %15 = load ptr, ptr %14, align 8
  %16 = tail call noundef ptr %15(ptr noundef nonnull align 8 dereferenceable(16) %1) #17
  %17 = load ptr, ptr %16, align 8
  %18 = getelementptr inbounds i8, ptr %17, i64 144
  %19 = load ptr, ptr %18, align 8
  %20 = tail call noundef ptr %19(ptr noundef nonnull align 8 dereferenceable(81) %16) #17
  %.not89 = icmp eq ptr %20, null
  br i1 %.not89, label %._crit_edge, label %.lr.ph

.lr.ph:                                           ; preds = %5, %.lr.ph
  %.010 = phi ptr [ %27, %.lr.ph ], [ %20, %5 ]
  %21 = load ptr, ptr %3, align 8
  %22 = getelementptr inbounds i8, ptr %.010, i64 36
  %23 = load i32, ptr %22, align 4
  %24 = getelementptr inbounds i8, ptr %.010, i64 48
  %25 = load ptr, ptr %24, align 8
  %26 = tail call noundef i32 @_ZN10CompileLog8identifyEP12ciBaseObject(ptr noundef nonnull align 8 dereferenceable(440) %21, ptr noundef %25) #17
  tail call void (ptr, ptr, ...) @_ZN9xmlStream4elemEPKcz(ptr noundef nonnull align 8 dereferenceable(152) %21, ptr noundef nonnull @.str.45, i32 noundef %23, i32 noundef %26) #17
  %27 = load ptr, ptr %.010, align 8
  %.not8 = icmp eq ptr %27, null
  br i1 %.not8, label %._crit_edge, label %.lr.ph, !llvm.loop !90

._crit_edge:                                      ; preds = %.lr.ph, %5
  %28 = load ptr, ptr %3, align 8
  tail call void @_ZN9xmlStream4tailEPKc(ptr noundef nonnull align 8 dereferenceable(152) %28, ptr noundef nonnull @.str.46) #17
  br label %29

29:                                               ; preds = %._crit_edge, %2
  ret void
}